; ModuleID = 'source-C-CXX/49/1905.c'
source_filename = "source-C-CXX/49/1905.c"
target datalayout = "e-m:e-p270:32:32-p271:32:32-p272:64:64-i64:64-f80:128-n8:16:32:64-S128"
target triple = "x86_64-pc-linux-gnu"

@.str = private unnamed_addr constant [3 x i8] c"%d\00", align 1
@.str.2 = private unnamed_addr constant [4 x i8] c"%d\0A\00", align 1
@str = private unnamed_addr constant [2 x i8] c"1\00", align 1

; Function Attrs: nofree nounwind sspstrong uwtable
define dso_local i32 @main() local_unnamed_addr #0 {
  %1 = alloca i32, align 4
  %2 = bitcast i32* %1 to i8*
  call void @llvm.lifetime.start.p0i8(i64 4, i8* nonnull %2) #4
  %3 = call i32 (i8*, ...) @__isoc99_scanf(i8* getelementptr inbounds ([3 x i8], [3 x i8]* @.str, i64 0, i64 0), i32* nonnull %1)
  %4 = load i32, i32* %1, align 4, !tbaa !5
  %5 = add nsw i32 %4, 12
  %6 = srem i32 %5, 7
  %7 = icmp eq i32 %6, 5
  br i1 %7, label %8, label %10

8:                                                ; preds = %0
  %9 = call i32 @puts(i8* nonnull dereferenceable(1) getelementptr inbounds ([2 x i8], [2 x i8]* @str, i64 0, i64 0))
  br label %10

10:                                               ; preds = %8, %0
  %11 = add nsw i32 %4, 43
  %12 = srem i32 %11, 7
  %13 = icmp eq i32 %12, 5
  br i1 %13, label %14, label %16

14:                                               ; preds = %10
  %15 = call i32 (i8*, ...) @printf(i8* nonnull dereferenceable(1) getelementptr inbounds ([4 x i8], [4 x i8]* @.str.2, i64 0, i64 0), i32 2)
  br label %16

16:                                               ; preds = %10, %14
  %17 = add nsw i32 %4, 71
  %18 = srem i32 %17, 7
  %19 = icmp eq i32 %18, 5
  br i1 %19, label %20, label %22

20:                                               ; preds = %16
  %21 = call i32 (i8*, ...) @printf(i8* nonnull dereferenceable(1) getelementptr inbounds ([4 x i8], [4 x i8]* @.str.2, i64 0, i64 0), i32 3)
  br label %22

22:                                               ; preds = %20, %16
  %23 = add nsw i32 %4, 102
  %24 = srem i32 %23, 7
  %25 = icmp eq i32 %24, 5
  br i1 %25, label %26, label %28

26:                                               ; preds = %22
  %27 = call i32 (i8*, ...) @printf(i8* nonnull dereferenceable(1) getelementptr inbounds ([4 x i8], [4 x i8]* @.str.2, i64 0, i64 0), i32 4)
  br label %28

28:                                               ; preds = %26, %22
  %29 = add nsw i32 %4, 132
  %30 = srem i32 %29, 7
  %31 = icmp eq i32 %30, 5
  br i1 %31, label %32, label %34

32:                                               ; preds = %28
  %33 = call i32 (i8*, ...) @printf(i8* nonnull dereferenceable(1) getelementptr inbounds ([4 x i8], [4 x i8]* @.str.2, i64 0, i64 0), i32 5)
  br label %34

34:                                               ; preds = %32, %28
  %35 = add nsw i32 %4, 163
  %36 = srem i32 %35, 7
  %37 = icmp eq i32 %36, 5
  br i1 %37, label %38, label %40

38:                                               ; preds = %34
  %39 = call i32 (i8*, ...) @printf(i8* nonnull dereferenceable(1) getelementptr inbounds ([4 x i8], [4 x i8]* @.str.2, i64 0, i64 0), i32 6)
  br label %40

40:                                               ; preds = %38, %34
  %41 = add nsw i32 %4, 193
  %42 = srem i32 %41, 7
  %43 = icmp eq i32 %42, 5
  br i1 %43, label %44, label %46

44:                                               ; preds = %40
  %45 = call i32 (i8*, ...) @printf(i8* nonnull dereferenceable(1) getelementptr inbounds ([4 x i8], [4 x i8]* @.str.2, i64 0, i64 0), i32 7)
  br label %46

46:                                               ; preds = %44, %40
  %47 = add nsw i32 %4, 224
  %48 = srem i32 %47, 7
  %49 = icmp eq i32 %48, 5
  br i1 %49, label %50, label %52

50:                                               ; preds = %46
  %51 = call i32 (i8*, ...) @printf(i8* nonnull dereferenceable(1) getelementptr inbounds ([4 x i8], [4 x i8]* @.str.2, i64 0, i64 0), i32 8)
  br label %52

52:                                               ; preds = %50, %46
  %53 = add nsw i32 %4, 255
  %54 = srem i32 %53, 7
  %55 = icmp eq i32 %54, 5
  br i1 %55, label %56, label %58

56:                                               ; preds = %52
  %57 = call i32 (i8*, ...) @printf(i8* nonnull dereferenceable(1) getelementptr inbounds ([4 x i8], [4 x i8]* @.str.2, i64 0, i64 0), i32 9)
  br label %58

58:                                               ; preds = %56, %52
  %59 = add nsw i32 %4, 285
  %60 = srem i32 %59, 7
  %61 = icmp eq i32 %60, 5
  br i1 %61, label %62, label %64

62:                                               ; preds = %58
  %63 = call i32 (i8*, ...) @printf(i8* nonnull dereferenceable(1) getelementptr inbounds ([4 x i8], [4 x i8]* @.str.2, i64 0, i64 0), i32 10)
  br label %64

64:                                               ; preds = %62, %58
  %65 = add nsw i32 %4, 316
  %66 = srem i32 %65, 7
  %67 = icmp eq i32 %66, 5
  br i1 %67, label %68, label %70

68:                                               ; preds = %64
  %69 = call i32 (i8*, ...) @printf(i8* nonnull dereferenceable(1) getelementptr inbounds ([4 x i8], [4 x i8]* @.str.2, i64 0, i64 0), i32 11)
  br label %70

70:                                               ; preds = %68, %64
  %71 = add nsw i32 %4, 346
  %72 = srem i32 %71, 7
  %73 = icmp eq i32 %72, 5
  br i1 %73, label %74, label %76

74:                                               ; preds = %70
  %75 = call i32 (i8*, ...) @printf(i8* nonnull dereferenceable(1) getelementptr inbounds ([4 x i8], [4 x i8]* @.str.2, i64 0, i64 0), i32 12)
  br label %76

76:                                               ; preds = %74, %70
  call void @llvm.lifetime.end.p0i8(i64 4, i8* nonnull %2) #4
  ret i32 0
}

; Function Attrs: argmemonly mustprogress nofree nosync nounwind willreturn
declare void @llvm.lifetime.start.p0i8(i64 immarg, i8* nocapture) #1

; Function Attrs: nofree nounwind
declare noundef i32 @__isoc99_scanf(i8* nocapture noundef readonly, ...) local_unnamed_addr #2

; Function Attrs: nofree nounwind
declare noundef i32 @printf(i8* nocapture noundef readonly, ...) local_unnamed_addr #2

; Function Attrs: argmemonly mustprogress nofree nosync nounwind willreturn
declare void @llvm.lifetime.end.p0i8(i64 immarg, i8* nocapture) #1

; Function Attrs: nofree nounwind
declare noundef i32 @puts(i8* nocapture noundef readonly) local_unnamed_addr #3


!llvm.module.flags = !{!0, !1, !2, !3}
!llvm.ident = !{!4}

!0 = !{i32 1, !"wchar_size", i32 4}
!1 = !{i32 7, !"PIC Level", i32 2}
!2 = !{i32 7, !"PIE Level", i32 2}
!3 = !{i32 7, !"uwtable", i32 1}
!4 = !{!"clang version 13.0.0"}
!5 = !{!6, !6, i64 0}
!6 = !{!"int", !7, i64 0}
!7 = !{!"omnipotent char", !8, i64 0}
!8 = !{!"Simple C/C++ TBAA"}
